; Function Attrs: mustprogress uwtable
define noundef nonnull align 8 dereferenceable(8) ptr @_ZN8QuantLiblsERSoRKNS_13CommodityTypeE(ptr noundef nonnull align 8 dereferenceable(8) %out, ptr nocapture noundef nonnull readonly align 8 dereferenceable(16) %c) local_unnamed_addr #2 {
entry:
  %0 = load ptr, ptr %c, align 8, !tbaa !18
  %cmp.i.i = icmp eq ptr %0, null
  br i1 %cmp.i.i, label %if.else, label %_ZNK8QuantLib13CommodityType4codeB5cxx11Ev.exit

_ZNK8QuantLib13CommodityType4codeB5cxx11Ev.exit:  ; preds = %entry
  %code.i = getelementptr inbounds nuw i8, ptr %0, i64 32
  %1 = load ptr, ptr %code.i, align 8, !tbaa !14
  %_M_string_length.i.i = getelementptr inbounds nuw i8, ptr %0, i64 40
  %2 = load i64, ptr %_M_string_length.i.i, align 8, !tbaa !11
  %call2.i = tail call noundef nonnull align 8 dereferenceable(8) ptr @_ZSt16__ostream_insertIcSt11char_traitsIcEERSt13basic_ostreamIT_T0_ES6_PKS3_l(ptr noundef nonnull align 8 dereferenceable(8) %out, ptr noundef %1, i64 noundef %2)
  br label %return

if.else:                                          ; preds = %entry
  %call1.i = tail call noundef nonnull align 8 dereferenceable(8) ptr @_ZSt16__ostream_insertIcSt11char_traitsIcEERSt13basic_ostreamIT_T0_ES6_PKS3_l(ptr noundef nonnull align 8 dereferenceable(8) %out, ptr noundef nonnull @.str, i64 noundef 19)
  br label %return

return:                                           ; preds = %if.else, %_ZNK8QuantLib13CommodityType4codeB5cxx11Ev.exit
  %retval.0 = phi ptr [ %out, %if.else ], [ %call2.i, %_ZNK8QuantLib13CommodityType4codeB5cxx11Ev.exit ]
  ret ptr %retval.0
}